target datalayout = "e-m:e-p270:32:32-p271:32:32-p272:64:64-i64:64-i128:128-f80:128-n8:16:32:64-S128"
target triple = "x86_64-pc-linux-gnu"

%struct.lua_TValue = type { %union.Value, [1 x i32], i32 }
%union.Value = type { ptr }

; Function Attrs: mustprogress nounwind uwtable
define internal noundef i32 @_ZL9luauF_logP9lua_StateP10lua_TValueS2_iS2_i(ptr noundef %0, ptr noundef %1, ptr noundef %2, i32 noundef %3, ptr noundef %4, i32 noundef %5) #0 {
  %7 = alloca i32, align 4
  %8 = alloca ptr, align 8
  %9 = alloca ptr, align 8
  %10 = alloca ptr, align 8
  %11 = alloca i32, align 4
  %12 = alloca ptr, align 8
  %13 = alloca i32, align 4
  %14 = alloca double, align 8
  %15 = alloca ptr, align 8
  %16 = alloca i32, align 4
  %17 = alloca double, align 8
  %18 = alloca ptr, align 8
  %19 = alloca ptr, align 8
  %20 = alloca ptr, align 8
  store ptr %0, ptr %8, align 8, !tbaa !4
  store ptr %1, ptr %9, align 8, !tbaa !9
  store ptr %2, ptr %10, align 8, !tbaa !9
  store i32 %3, ptr %11, align 4, !tbaa !11
  store ptr %4, ptr %12, align 8, !tbaa !9
  store i32 %5, ptr %13, align 4, !tbaa !11
  %21 = load i32, ptr %13, align 4, !tbaa !11
  %22 = icmp sge i32 %21, 1
  br i1 %22, label %23, label %92

23:                                               ; preds = %6
  %24 = load i32, ptr %11, align 4, !tbaa !11
  %25 = icmp sle i32 %24, 1
  br i1 %25, label %26, label %92

26:                                               ; preds = %23
  %27 = load ptr, ptr %10, align 8, !tbaa !9
  %28 = getelementptr inbounds nuw %struct.lua_TValue, ptr %27, i32 0, i32 2
  %29 = load i32, ptr %28, align 4, !tbaa !13
  %30 = icmp eq i32 %29, 3
  br i1 %30, label %31, label %92

31:                                               ; preds = %26
  call void @llvm.lifetime.start.p0(i64 8, ptr %14) #17
  %32 = load ptr, ptr %10, align 8, !tbaa !9
  %33 = getelementptr inbounds nuw %struct.lua_TValue, ptr %32, i32 0, i32 0
  %34 = load double, ptr %33, align 8, !tbaa !15
  store double %34, ptr %14, align 8, !tbaa !16
  %35 = load i32, ptr %13, align 4, !tbaa !11
  %36 = icmp eq i32 %35, 1
  br i1 %36, label %37, label %45

37:                                               ; preds = %31
  call void @llvm.lifetime.start.p0(i64 8, ptr %15) #17
  %38 = load ptr, ptr %9, align 8, !tbaa !9
  store ptr %38, ptr %15, align 8, !tbaa !9
  %39 = load double, ptr %14, align 8, !tbaa !16
  %40 = call double @llvm.log.f64(double %39)
  %41 = load ptr, ptr %15, align 8, !tbaa !9
  %42 = getelementptr inbounds nuw %struct.lua_TValue, ptr %41, i32 0, i32 0
  store double %40, ptr %42, align 8, !tbaa !15
  %43 = load ptr, ptr %15, align 8, !tbaa !9
  %44 = getelementptr inbounds nuw %struct.lua_TValue, ptr %43, i32 0, i32 2
  store i32 3, ptr %44, align 4, !tbaa !13
  call void @llvm.lifetime.end.p0(i64 8, ptr %15) #17
  store i32 1, ptr %7, align 4
  store i32 1, ptr %16, align 4
  br label %89

45:                                               ; preds = %31
  %46 = load ptr, ptr %12, align 8, !tbaa !9
  %47 = getelementptr inbounds nuw %struct.lua_TValue, ptr %46, i32 0, i32 2
  %48 = load i32, ptr %47, align 4, !tbaa !13
  %49 = icmp eq i32 %48, 3
  br i1 %49, label %50, label %87

50:                                               ; preds = %45
  call void @llvm.lifetime.start.p0(i64 8, ptr %17) #17
  %51 = load ptr, ptr %12, align 8, !tbaa !9
  %52 = getelementptr inbounds nuw %struct.lua_TValue, ptr %51, i32 0, i32 0
  %53 = load double, ptr %52, align 8, !tbaa !15
  store double %53, ptr %17, align 8, !tbaa !16
  %54 = load double, ptr %17, align 8, !tbaa !16
  %55 = fcmp oeq double %54, 2.000000e+00
  br i1 %55, label %56, label %64

56:                                               ; preds = %50
  call void @llvm.lifetime.start.p0(i64 8, ptr %18) #17
  %57 = load ptr, ptr %9, align 8, !tbaa !9
  store ptr %57, ptr %18, align 8, !tbaa !9
  %58 = load double, ptr %14, align 8, !tbaa !16
  %59 = call double @llvm.log2.f64(double %58)
  %60 = load ptr, ptr %18, align 8, !tbaa !9
  %61 = getelementptr inbounds nuw %struct.lua_TValue, ptr %60, i32 0, i32 0
  store double %59, ptr %61, align 8, !tbaa !15
  %62 = load ptr, ptr %18, align 8, !tbaa !9
  %63 = getelementptr inbounds nuw %struct.lua_TValue, ptr %62, i32 0, i32 2
  store i32 3, ptr %63, align 4, !tbaa !13
  call void @llvm.lifetime.end.p0(i64 8, ptr %18) #17
  store i32 1, ptr %7, align 4
  store i32 1, ptr %16, align 4
  br label %86

64:                                               ; preds = %50
  %65 = load double, ptr %17, align 8, !tbaa !16
  %66 = fcmp oeq double %65, 1.000000e+01
  br i1 %66, label %67, label %75

67:                                               ; preds = %64
  call void @llvm.lifetime.start.p0(i64 8, ptr %19) #17
  %68 = load ptr, ptr %9, align 8, !tbaa !9
  store ptr %68, ptr %19, align 8, !tbaa !9
  %69 = load double, ptr %14, align 8, !tbaa !16
  %70 = call double @llvm.log10.f64(double %69)
  %71 = load ptr, ptr %19, align 8, !tbaa !9
  %72 = getelementptr inbounds nuw %struct.lua_TValue, ptr %71, i32 0, i32 0
  store double %70, ptr %72, align 8, !tbaa !15
  %73 = load ptr, ptr %19, align 8, !tbaa !9
  %74 = getelementptr inbounds nuw %struct.lua_TValue, ptr %73, i32 0, i32 2
  store i32 3, ptr %74, align 4, !tbaa !13
  call void @llvm.lifetime.end.p0(i64 8, ptr %19) #17
  store i32 1, ptr %7, align 4
  store i32 1, ptr %16, align 4
  br label %86

75:                                               ; preds = %64
  call void @llvm.lifetime.start.p0(i64 8, ptr %20) #17
  %76 = load ptr, ptr %9, align 8, !tbaa !9
  store ptr %76, ptr %20, align 8, !tbaa !9
  %77 = load double, ptr %14, align 8, !tbaa !16
  %78 = call double @llvm.log.f64(double %77)
  %79 = load double, ptr %17, align 8, !tbaa !16
  %80 = call double @llvm.log.f64(double %79)
  %81 = fdiv double %78, %80
  %82 = load ptr, ptr %20, align 8, !tbaa !9
  %83 = getelementptr inbounds nuw %struct.lua_TValue, ptr %82, i32 0, i32 0
  store double %81, ptr %83, align 8, !tbaa !15
  %84 = load ptr, ptr %20, align 8, !tbaa !9
  %85 = getelementptr inbounds nuw %struct.lua_TValue, ptr %84, i32 0, i32 2
  store i32 3, ptr %85, align 4, !tbaa !13
  call void @llvm.lifetime.end.p0(i64 8, ptr %20) #17
  store i32 1, ptr %7, align 4
  store i32 1, ptr %16, align 4
  br label %86

86:                                               ; preds = %75, %67, %56
  call void @llvm.lifetime.end.p0(i64 8, ptr %17) #17
  br label %89

87:                                               ; preds = %45
  br label %88

88:                                               ; preds = %87
  store i32 0, ptr %16, align 4
  br label %89

89:                                               ; preds = %88, %86, %37
  call void @llvm.lifetime.end.p0(i64 8, ptr %14) #17
  %90 = load i32, ptr %16, align 4
  switch i32 %90, label %95 [
    i32 0, label %91
    i32 1, label %93
  ]

91:                                               ; preds = %89
  br label %92

92:                                               ; preds = %91, %26, %23, %6
  store i32 -1, ptr %7, align 4
  br label %93

93:                                               ; preds = %92, %89
  %94 = load i32, ptr %7, align 4
  ret i32 %94

95:                                               ; preds = %89
  unreachable
}