; Function Attrs: mustprogress nofree norecurse nosync nounwind willreturn memory(argmem: readwrite) uwtable
define internal noundef range(i32 -1, 2) i32 @_ZL9luauF_logP9lua_StateP10lua_TValueS2_iS2_i(ptr readnone captures(none) %0, ptr noundef writeonly captures(none) %1, ptr noundef readonly captures(none) %2, i32 noundef %3, ptr noundef readonly captures(none) %4, i32 noundef %5) #1 {
  %7 = icmp sgt i32 %5, 0
  %8 = icmp slt i32 %3, 2
  %or.cond = and i1 %8, %7
  br i1 %or.cond, label %9, label %.thread

9:                                                ; preds = %6
  %10 = getelementptr inbounds nuw i8, ptr %2, i64 12
  %11 = load i32, ptr %10, align 4, !tbaa !4
  %12 = icmp eq i32 %11, 3
  br i1 %12, label %13, label %.thread

13:                                               ; preds = %9
  %14 = load double, ptr %2, align 8, !tbaa !9
  %15 = icmp eq i32 %5, 1
  br i1 %15, label %16, label %18

16:                                               ; preds = %13
  %17 = tail call double @llvm.log.f64(double %14)
  br label %.thread.sink.split

18:                                               ; preds = %13
  %19 = getelementptr inbounds nuw i8, ptr %4, i64 12
  %20 = load i32, ptr %19, align 4, !tbaa !4
  %21 = icmp eq i32 %20, 3
  br i1 %21, label %22, label %.thread

22:                                               ; preds = %18
  %23 = load double, ptr %4, align 8, !tbaa !9
  %24 = fcmp oeq double %23, 2.000000e+00
  br i1 %24, label %25, label %27

25:                                               ; preds = %22
  %26 = tail call double @llvm.log2.f64(double %14)
  br label %.thread.sink.split

27:                                               ; preds = %22
  %28 = fcmp oeq double %23, 1.000000e+01
  br i1 %28, label %29, label %31

29:                                               ; preds = %27
  %30 = tail call double @llvm.log10.f64(double %14)
  br label %.thread.sink.split

31:                                               ; preds = %27
  %32 = tail call double @llvm.log.f64(double %14)
  %33 = tail call double @llvm.log.f64(double %23)
  %34 = fdiv double %32, %33
  br label %.thread.sink.split

.thread.sink.split:                               ; preds = %16, %31, %29, %25
  %.sink = phi double [ %26, %25 ], [ %30, %29 ], [ %34, %31 ], [ %17, %16 ]
  store double %.sink, ptr %1, align 8, !tbaa !9
  %35 = getelementptr inbounds nuw i8, ptr %1, i64 12
  store i32 3, ptr %35, align 4, !tbaa !4
  br label %.thread

.thread:                                          ; preds = %.thread.sink.split, %6, %9, %18
  %.2 = phi i32 [ -1, %18 ], [ -1, %9 ], [ -1, %6 ], [ 1, %.thread.sink.split ]
  ret i32 %.2
}